target datalayout = "e-m:e-p270:32:32-p271:32:32-p272:64:64-i64:64-i128:128-f80:128-n8:16:32:64-S128"
target triple = "x86_64-pc-linux-gnu"

%"class.std::basic_ostream" = type { ptr, %"class.std::basic_ios" }
%"class.std::basic_ios" = type { %"class.std::ios_base", ptr, i8, i8, ptr, ptr, ptr, ptr }
%"class.std::ios_base" = type { ptr, i64, i64, i32, i32, i32, ptr, %"struct.std::ios_base::_Words", [8 x %"struct.std::ios_base::_Words"], i32, ptr, %"class.std::locale" }
%"struct.std::ios_base::_Words" = type { ptr, i64 }
%"class.std::locale" = type { ptr }
%struct.TinySettings = type { double, double, i32, i32, i32, i32 }

@_ZSt4cout = external global %"class.std::basic_ostream", align 8
@.str.33 = private unnamed_addr constant [51 x i8] c"Error in tiny_update_settings: settings is nullptr\00", align 1

; Function Attrs: mustprogress uwtable
define i32 @tiny_update_settings(ptr noundef %0, double noundef %1, double noundef %2, i32 noundef %3, i32 noundef %4, i32 noundef %5, i32 noundef %6) #5 {
  %8 = alloca i32, align 4
  %9 = alloca ptr, align 8
  %10 = alloca double, align 8
  %11 = alloca double, align 8
  %12 = alloca i32, align 4
  %13 = alloca i32, align 4
  %14 = alloca i32, align 4
  %15 = alloca i32, align 4
  store ptr %0, ptr %9, align 8
  store double %1, ptr %10, align 8
  store double %2, ptr %11, align 8
  store i32 %3, ptr %12, align 4
  store i32 %4, ptr %13, align 4
  store i32 %5, ptr %14, align 4
  store i32 %6, ptr %15, align 4
  %16 = load ptr, ptr %9, align 8
  %17 = icmp ne ptr %16, null
  br i1 %17, label %21, label %18

18:                                               ; preds = %7
  %19 = call noundef nonnull align 8 dereferenceable(8) ptr @_ZStlsISt11char_traitsIcEERSt13basic_ostreamIcT_ES5_PKc(ptr noundef nonnull align 8 dereferenceable(8) @_ZSt4cout, ptr noundef @.str.33)
  %20 = call noundef nonnull align 8 dereferenceable(8) ptr @_ZNSolsEPFRSoS_E(ptr noundef nonnull align 8 dereferenceable(8) %19, ptr noundef @_ZSt4endlIcSt11char_traitsIcEERSt13basic_ostreamIT_T0_ES6_)
  store i32 1, ptr %8, align 4
  br label %40

21:                                               ; preds = %7
  %22 = load double, ptr %10, align 8
  %23 = load ptr, ptr %9, align 8
  %24 = getelementptr inbounds %struct.TinySettings, ptr %23, i32 0, i32 0
  store double %22, ptr %24, align 8
  %25 = load double, ptr %11, align 8
  %26 = load ptr, ptr %9, align 8
  %27 = getelementptr inbounds %struct.TinySettings, ptr %26, i32 0, i32 1
  store double %25, ptr %27, align 8
  %28 = load i32, ptr %12, align 4
  %29 = load ptr, ptr %9, align 8
  %30 = getelementptr inbounds %struct.TinySettings, ptr %29, i32 0, i32 2
  store i32 %28, ptr %30, align 8
  %31 = load i32, ptr %13, align 4
  %32 = load ptr, ptr %9, align 8
  %33 = getelementptr inbounds %struct.TinySettings, ptr %32, i32 0, i32 3
  store i32 %31, ptr %33, align 4
  %34 = load i32, ptr %14, align 4
  %35 = load ptr, ptr %9, align 8
  %36 = getelementptr inbounds %struct.TinySettings, ptr %35, i32 0, i32 4
  store i32 %34, ptr %36, align 8
  %37 = load i32, ptr %15, align 4
  %38 = load ptr, ptr %9, align 8
  %39 = getelementptr inbounds %struct.TinySettings, ptr %38, i32 0, i32 5
  store i32 %37, ptr %39, align 4
  store i32 0, ptr %8, align 4
  br label %40

40:                                               ; preds = %21, %18
  %41 = load i32, ptr %8, align 4
  ret i32 %41
}