; Function Attrs: mustprogress uwtable
define range(i32 0, 2) i32 @tiny_update_settings(ptr noundef writeonly %0, double noundef %1, double noundef %2, i32 noundef %3, i32 noundef %4, i32 noundef %5, i32 noundef %6) local_unnamed_addr #3 {
  %.not = icmp eq ptr %0, null
  br i1 %.not, label %8, label %11

8:                                                ; preds = %7
  %9 = tail call noundef nonnull align 8 dereferenceable(8) ptr @_ZStlsISt11char_traitsIcEERSt13basic_ostreamIcT_ES5_PKc(ptr noundef nonnull align 8 dereferenceable(8) @_ZSt4cout, ptr noundef nonnull @.str.33)
  %10 = tail call noundef nonnull align 8 dereferenceable(8) ptr @_ZNSolsEPFRSoS_E(ptr noundef nonnull align 8 dereferenceable(8) %9, ptr noundef nonnull @_ZSt4endlIcSt11char_traitsIcEERSt13basic_ostreamIT_T0_ES6_)
  br label %17

11:                                               ; preds = %7
  store double %1, ptr %0, align 8
  %12 = getelementptr inbounds i8, ptr %0, i64 8
  store double %2, ptr %12, align 8
  %13 = getelementptr inbounds i8, ptr %0, i64 16
  store i32 %3, ptr %13, align 8
  %14 = getelementptr inbounds i8, ptr %0, i64 20
  store i32 %4, ptr %14, align 4
  %15 = getelementptr inbounds i8, ptr %0, i64 24
  store i32 %5, ptr %15, align 8
  %16 = getelementptr inbounds i8, ptr %0, i64 28
  store i32 %6, ptr %16, align 4
  br label %17

17:                                               ; preds = %11, %8
  %.0 = phi i32 [ 0, %11 ], [ 1, %8 ]
  ret i32 %.0
}